target datalayout = "e-m:e-p270:32:32-p271:32:32-p272:64:64-i64:64-i128:128-f80:128-n8:16:32:64-S128"
target triple = "x86_64-pc-linux-gnu"

%"class.std::__cxx11::basic_string" = type { %"struct.std::__cxx11::basic_string<char>::_Alloc_hider", i64, %union.anon }
%"struct.std::__cxx11::basic_string<char>::_Alloc_hider" = type { ptr }
%union.anon = type { i64, [8 x i8] }
%"class.std::filesystem::__cxx11::path" = type { %"class.std::__cxx11::basic_string", %"struct.std::filesystem::__cxx11::path::_List" }
%"struct.std::filesystem::__cxx11::path::_List" = type { %"class.std::unique_ptr.34" }
%"class.std::unique_ptr.34" = type { %"struct.std::__uniq_ptr_data.35" }
%"struct.std::__uniq_ptr_data.35" = type { %"class.std::__uniq_ptr_impl.36" }
%"class.std::__uniq_ptr_impl.36" = type { %"class.std::tuple.37" }
%"class.std::tuple.37" = type { %"struct.std::_Tuple_impl.38" }
%"struct.std::_Tuple_impl.38" = type { %"struct.std::_Head_base.41" }
%"struct.std::_Head_base.41" = type { ptr }
%struct.t_symtab = type { i32, ptr }
%struct.t_symbuf = type { i32, ptr, ptr }

@.str.1 = private unnamed_addr constant [125 x i8] c"generated/home/dtcxzyw/WorkSpace/Projects/compilers/llvm-opt-benchmark/bench/gromacs/gromacs/src/gromacs/topology/symtab.cpp\00", align 1
@.str.14 = private unnamed_addr constant [38 x i8] c"symtab get_symtab_handle %d not found\00", align 1

; Function Attrs: mustprogress uwtable
define noundef ptr @_Z17get_symtab_handleP8t_symtabi(ptr noundef %0, i32 noundef %1) #0 personality ptr @__gxx_personality_v0 {
  %3 = alloca ptr, align 8
  %4 = alloca i32, align 4
  %5 = alloca ptr, align 8
  %6 = alloca %"class.std::filesystem::__cxx11::path", align 8
  %7 = alloca ptr, align 8
  %8 = alloca i32, align 4
  store ptr %0, ptr %3, align 8, !tbaa !282
  store i32 %1, ptr %4, align 4, !tbaa !11
  call void @llvm.lifetime.start.p0(i64 8, ptr %5) #18
  %9 = load ptr, ptr %3, align 8, !tbaa !282
  %10 = getelementptr inbounds nuw %struct.t_symtab, ptr %9, i32 0, i32 1
  %11 = load ptr, ptr %10, align 8, !tbaa !284
  store ptr %11, ptr %5, align 8, !tbaa !287
  br label %12

12:                                               ; preds = %37, %2
  %13 = load ptr, ptr %5, align 8, !tbaa !287
  %14 = icmp ne ptr %13, null
  br i1 %14, label %15, label %38

15:                                               ; preds = %12
  %16 = load i32, ptr %4, align 4, !tbaa !11
  %17 = load ptr, ptr %5, align 8, !tbaa !287
  %18 = getelementptr inbounds nuw %struct.t_symbuf, ptr %17, i32 0, i32 0
  %19 = load i32, ptr %18, align 8, !tbaa !290
  %20 = icmp slt i32 %16, %19
  br i1 %20, label %21, label %28

21:                                               ; preds = %15
  %22 = load ptr, ptr %5, align 8, !tbaa !287
  %23 = getelementptr inbounds nuw %struct.t_symbuf, ptr %22, i32 0, i32 1
  %24 = load ptr, ptr %23, align 8, !tbaa !288
  %25 = load i32, ptr %4, align 4, !tbaa !11
  %26 = sext i32 %25 to i64
  %27 = getelementptr inbounds ptr, ptr %24, i64 %26
  call void @llvm.lifetime.end.p0(i64 8, ptr %5) #18
  ret ptr %27

28:                                               ; preds = %15
  %29 = load ptr, ptr %5, align 8, !tbaa !287
  %30 = getelementptr inbounds nuw %struct.t_symbuf, ptr %29, i32 0, i32 0
  %31 = load i32, ptr %30, align 8, !tbaa !290
  %32 = load i32, ptr %4, align 4, !tbaa !11
  %33 = sub nsw i32 %32, %31
  store i32 %33, ptr %4, align 4, !tbaa !11
  %34 = load ptr, ptr %5, align 8, !tbaa !287
  %35 = getelementptr inbounds nuw %struct.t_symbuf, ptr %34, i32 0, i32 2
  %36 = load ptr, ptr %35, align 8, !tbaa !291
  store ptr %36, ptr %5, align 8, !tbaa !287
  br label %37

37:                                               ; preds = %28
  br label %12, !llvm.loop !325

38:                                               ; preds = %12
  call void @llvm.lifetime.start.p0(i64 40, ptr %6) #18
  call void @_ZNSt10filesystem7__cxx114pathC2IA125_cS1_EERKT_NS1_6formatE(ptr noundef nonnull align 8 dereferenceable(40) %6, ptr noundef nonnull align 1 dereferenceable(125) @.str.1, i8 noundef zeroext 2)
  %39 = load i32, ptr %4, align 4, !tbaa !11
  invoke void (i32, ptr, i32, ptr, ...) @_Z9gmx_fataliRKNSt10filesystem7__cxx114pathEiPKcz(i32 noundef 0, ptr noundef nonnull align 8 dereferenceable(40) %6, i32 noundef 252, ptr noundef @.str.14, i32 noundef %39) #20
          to label %40 unwind label %41

40:                                               ; preds = %38
  unreachable

41:                                               ; preds = %38
  %42 = landingpad { ptr, i32 }
          cleanup
  %43 = extractvalue { ptr, i32 } %42, 0
  store ptr %43, ptr %7, align 8
  %44 = extractvalue { ptr, i32 } %42, 1
  store i32 %44, ptr %8, align 4
  call void @_ZNSt10filesystem7__cxx114pathD2Ev(ptr noundef nonnull align 8 dereferenceable(40) %6) #18
  call void @llvm.lifetime.end.p0(i64 40, ptr %6) #18
  call void @llvm.lifetime.end.p0(i64 8, ptr %5) #18
  br label %45

45:                                               ; preds = %41
  %46 = load ptr, ptr %7, align 8
  %47 = load i32, ptr %8, align 4
  %48 = insertvalue { ptr, i32 } poison, ptr %46, 0
  %49 = insertvalue { ptr, i32 } %48, i32 %47, 1
  resume { ptr, i32 } %49
}