; Function Attrs: mustprogress uwtable
define noundef ptr @_Z17get_symtab_handleP8t_symtabi(ptr noundef readonly captures(none) %0, i32 noundef %1) local_unnamed_addr #0 personality ptr @__gxx_personality_v0 {
  %3 = alloca %"class.std::filesystem::__cxx11::path", align 8
  %4 = getelementptr inbounds nuw i8, ptr %0, i64 8
  %.01115 = load ptr, ptr %4, align 8, !tbaa !110
  %.not16 = icmp eq ptr %.01115, null
  br i1 %.not16, label %._crit_edge, label %.lr.ph

.lr.ph:                                           ; preds = %2, %12
  %.01118 = phi ptr [ %.011, %12 ], [ %.01115, %2 ]
  %.017 = phi i32 [ %13, %12 ], [ %1, %2 ]
  %5 = load i32, ptr %.01118, align 8, !tbaa !101
  %6 = icmp slt i32 %.017, %5
  br i1 %6, label %7, label %12

7:                                                ; preds = %.lr.ph
  %8 = getelementptr inbounds nuw i8, ptr %.01118, i64 8
  %9 = load ptr, ptr %8, align 8, !tbaa !106
  %10 = sext i32 %.017 to i64
  %11 = getelementptr inbounds ptr, ptr %9, i64 %10
  ret ptr %11

12:                                               ; preds = %.lr.ph
  %13 = sub nsw i32 %.017, %5
  %14 = getelementptr inbounds nuw i8, ptr %.01118, i64 16
  %.011 = load ptr, ptr %14, align 8, !tbaa !110
  %.not = icmp eq ptr %.011, null
  br i1 %.not, label %._crit_edge, label %.lr.ph, !llvm.loop !114

._crit_edge:                                      ; preds = %12, %2
  %.0.lcssa = phi i32 [ %1, %2 ], [ %13, %12 ]
  call void @llvm.lifetime.start.p0(i64 40, ptr nonnull %3) #25
  call void @_ZNSt10filesystem7__cxx114pathC2IA125_cS1_EERKT_NS1_6formatE(ptr noundef nonnull align 8 dereferenceable(40) %3, ptr noundef nonnull align 1 dereferenceable(125) @.str.1, i8 noundef zeroext 2)
  invoke void (i32, ptr, i32, ptr, ...) @_Z9gmx_fataliRKNSt10filesystem7__cxx114pathEiPKcz(i32 noundef 0, ptr noundef nonnull align 8 dereferenceable(40) %3, i32 noundef 252, ptr noundef nonnull @.str.14, i32 noundef %.0.lcssa) #29
          to label %15 unwind label %16

15:                                               ; preds = %._crit_edge
  unreachable

16:                                               ; preds = %._crit_edge
  %17 = landingpad { ptr, i32 }
          cleanup
  call void @_ZNSt10filesystem7__cxx114pathD2Ev(ptr noundef nonnull align 8 dereferenceable(40) %3) #25
  call void @llvm.lifetime.end.p0(i64 40, ptr nonnull %3) #25
  resume { ptr, i32 } %17
}